; Function Attrs: nounwind uwtable
define range(i32 0, 2) i32 @ERR_pop_to_mark() local_unnamed_addr #0 {
  %1 = tail call ptr @ossl_err_get_state_int() #2
  %2 = icmp eq ptr %1, null
  br i1 %2, label %.critedge.thread, label %.preheader

.preheader:                                       ; preds = %0
  %3 = getelementptr inbounds nuw i8, ptr %1, i64 900
  %4 = getelementptr inbounds nuw i8, ptr %1, i64 896
  %5 = load i32, ptr %3, align 4, !tbaa !3
  %6 = load i32, ptr %4, align 8, !tbaa !8
  %.not18 = icmp eq i32 %5, %6
  br i1 %.not18, label %.critedge.thread, label %.lr.ph

.lr.ph:                                           ; preds = %.preheader
  %7 = getelementptr inbounds nuw i8, ptr %1, i64 64
  %8 = getelementptr inbounds nuw i8, ptr %1, i64 512
  %9 = getelementptr inbounds nuw i8, ptr %1, i64 256
  %10 = getelementptr inbounds nuw i8, ptr %1, i64 384
  %11 = getelementptr inbounds nuw i8, ptr %1, i64 128
  %12 = getelementptr inbounds nuw i8, ptr %1, i64 704
  %13 = getelementptr inbounds nuw i8, ptr %1, i64 576
  %14 = getelementptr inbounds nuw i8, ptr %1, i64 768
  br label %15

15:                                               ; preds = %.lr.ph, %err_clear.exit
  %16 = phi i32 [ %6, %.lr.ph ], [ %spec.select, %err_clear.exit ]
  %17 = sext i32 %16 to i64
  %18 = getelementptr inbounds [16 x i32], ptr %7, i64 0, i64 %17
  %19 = load i32, ptr %18, align 4, !tbaa !9
  %20 = icmp eq i32 %19, 0
  br i1 %20, label %21, label %.critedge

21:                                               ; preds = %15
  %22 = getelementptr inbounds nuw [16 x i32], ptr %8, i64 0, i64 %17
  %23 = load i32, ptr %22, align 4, !tbaa !9
  %24 = and i32 %23, 1
  %.not.i.i = icmp eq i32 %24, 0
  %25 = getelementptr inbounds nuw [16 x ptr], ptr %9, i64 0, i64 %17
  br i1 %.not.i.i, label %29, label %26

26:                                               ; preds = %21
  %27 = load ptr, ptr %25, align 8, !tbaa !10
  %.not22.i.i = icmp eq ptr %27, null
  br i1 %.not22.i.i, label %err_clear.exit, label %28

28:                                               ; preds = %26
  store i8 0, ptr %27, align 1, !tbaa !13
  br label %.sink.split.i.i

29:                                               ; preds = %21
  store ptr null, ptr %25, align 8, !tbaa !10
  %30 = getelementptr inbounds nuw [16 x i64], ptr %10, i64 0, i64 %17
  store i64 0, ptr %30, align 8, !tbaa !14
  br label %.sink.split.i.i

.sink.split.i.i:                                  ; preds = %29, %28
  %.sink.i.i = phi i32 [ 1, %28 ], [ 0, %29 ]
  store i32 %.sink.i.i, ptr %22, align 4, !tbaa !9
  br label %err_clear.exit

err_clear.exit:                                   ; preds = %26, %.sink.split.i.i
  store i32 0, ptr %18, align 4, !tbaa !9
  %31 = getelementptr inbounds nuw [16 x i32], ptr %1, i64 0, i64 %17
  store i32 0, ptr %31, align 4, !tbaa !9
  %32 = getelementptr inbounds nuw [16 x i64], ptr %11, i64 0, i64 %17
  store i64 0, ptr %32, align 8, !tbaa !14
  %33 = getelementptr inbounds nuw [16 x i32], ptr %12, i64 0, i64 %17
  store i32 -1, ptr %33, align 4, !tbaa !9
  %34 = getelementptr inbounds nuw [16 x ptr], ptr %13, i64 0, i64 %17
  %35 = load ptr, ptr %34, align 8, !tbaa !10
  tail call void @CRYPTO_free(ptr noundef %35, ptr noundef nonnull @.str, i32 noundef 91) #2
  store ptr null, ptr %34, align 8, !tbaa !10
  %36 = getelementptr inbounds nuw [16 x ptr], ptr %14, i64 0, i64 %17
  %37 = load ptr, ptr %36, align 8, !tbaa !10
  tail call void @CRYPTO_free(ptr noundef %37, ptr noundef nonnull @.str, i32 noundef 93) #2
  store ptr null, ptr %36, align 8, !tbaa !10
  %38 = load i32, ptr %4, align 8, !tbaa !8
  %39 = icmp sgt i32 %38, 0
  %40 = add nsw i32 %38, -1
  %spec.select = select i1 %39, i32 %40, i32 15
  store i32 %spec.select, ptr %4, align 8, !tbaa !8
  %41 = load i32, ptr %3, align 4, !tbaa !3
  %.not = icmp eq i32 %41, %spec.select
  br i1 %.not, label %.critedge.thread, label %15, !llvm.loop !16

.critedge:                                        ; preds = %15
  %42 = add nsw i32 %19, -1
  store i32 %42, ptr %18, align 4, !tbaa !9
  br label %.critedge.thread

.critedge.thread:                                 ; preds = %err_clear.exit, %.preheader, %0, %.critedge
  %.0 = phi i32 [ 1, %.critedge ], [ 0, %0 ], [ 0, %.preheader ], [ 0, %err_clear.exit ]
  ret i32 %.0
}